Certificate:
    Data:
        Version: 3 (0x2)
        Serial Number: 1 (0x1)
        Signature Algorithm: sha256WithRSAEncryption
        Issuer: C=FR, ST=Radius, L=Somewhere, O=Example Inc./emailAddress=admin@example.org, CN=Example Certificate Authority
        Validity
            Not Before: May 16 02:15:00 2024 GMT
            Not After : May 17 02:15:00 2124 GMT
        Subject: C=FR, ST=Radius, O=Example Inc., CN=Example Server Certificate/emailAddress=admin@example.org
        Subject Public Key Info:
            Public Key Algorithm: rsaEncryption
                Public-Key: (2048 bit)
                Modulus:
                    00:af:2f:6e:b1:90:96:16:1e:02:84:6e:2a:7c:2d:
                    2b:06:ec:a0:c6:ce:d9:36:22:f6:a4:34:7d:d7:0e:
                    92:18:43:a0:6d:6f:5e:75:41:f8:ef:8a:aa:ea:48:
                    9f:60:5d:1b:75:5a:28:3d:c6:8d:55:8e:5c:bd:3e:
                    37:77:db:ae:3a:b2:20:c9:98:d6:87:dc:22:e9:81:
                    51:6b:86:4a:9a:1a:71:ef:45:d3:09:ab:44:d7:39:
                    13:70:a1:1c:42:a1:df:cb:08:04:78:79:52:69:70:
                    c3:7c:46:5f:af:10:60:e0:52:ae:25:3f:23:66:1c:
                    a9:8a:91:3f:5d:df:b9:ea:bc:0c:b4:f7:a6:da:67:
                    c3:27:3e:e8:fe:66:03:70:69:4e:29:33:a4:42:73:
                    45:66:ad:7b:62:63:d0:27:5d:6f:c5:32:1f:ab:da:
                    99:f8:dc:9a:1a:fe:04:03:7d:76:93:b1:c3:8d:ef:
                    81:d7:1b:88:0b:5f:18:4d:ab:e6:19:81:eb:1d:6f:
                    94:d1:29:49:7c:6f:e4:ed:c9:c8:ed:b6:e0:fc:07:
                    ce:51:ee:c5:39:c1:27:f5:36:62:7c:d7:3e:2b:83:
                    a8:8f:f5:28:96:f3:c3:b9:18:a8:15:28:c8:f2:b3:
                    da:11:22:2f:d9:0f:a2:19:9a:72:6d:f9:a3:6c:12:
                    42:7d
                Exponent: 65537 (0x10001)
        X509v3 extensions:
            X509v3 Extended Key Usage: 
                TLS Web Server Authentication
            X509v3 CRL Distribution Points: 
                Full Name:
                  URI:http://www.example.com/example_ca.crl
            X509v3 Subject Key Identifier: 
                E6:B1:7D:0F:44:92:F7:D8:9B:BE:31:95:94:EB:28:1C:FE:2F:05:F8
            X509v3 Authority Key Identifier: 
                5D:A8:53:54:07:C1:D1:37:8A:58:8C:6D:15:72:B4:68:83:51:6A:D4
    Signature Algorithm: sha256WithRSAEncryption
    Signature Value:
        11:8e:00:da:ad:f9:73:62:be:2e:31:dc:12:52:49:8d:43:26:
        d6:19:67:3c:1d:7e:00:1f:30:ba:e7:eb:b8:d7:9a:03:46:57:
        16:c5:f8:cb:ed:d9:f4:12:4c:80:cb:0e:68:27:06:9c:8c:1b:
        82:d4:36:4e:34:ea:1e:32:78:9d:54:d0:f9:a4:ae:ce:af:88:
        b2:aa:31:ea:75:b8:a3:7a:64:39:df:3d:83:3f:9b:de:29:8a:
        6f:6d:0b:97:13:8e:8f:bd:d4:e1:6e:fa:5d:e0:8c:87:a9:ec:
        50:83:3c:b4:7e:95:8b:b3:c7:6a:bd:eb:0a:f6:8d:63:fd:7f:
        39:a2:f1:a7:21:24:27:af:fa:97:de:bb:e0:77:38:25:cf:e5:
        46:cb:b5:a2:b3:25:7f:ee:e7:70:8d:3b:43:e7:eb:3a:33:a5:
        a4:e7:97:5d:27:87:2a:62:f6:42:bb:b0:cd:95:60:b8:9d:f7:
        3d:35:4e:df:54:3f:0f:8a:bc:61:84:16:98:87:42:18:9e:76:
        84:4b:1d:92:24:e4:64:a1:b6:24:e7:0d:c7:9f:d2:5d:c0:88:
        2c:4a:3e:4f:c8:0c:ae:c5:9b:76:27:42:83:3d:08:6d:91:6e:
        b2:52:43:3e:f6:c3:32:cb:de:53:b2:24:af:47:86:1b:6b:4c:
        5b:a5:18:f1
-----BEGIN CERTIFICATE-----
MIIEHjCCAwagAwIBAgIBATANBgkqhkiG9w0BAQsFADCBkzELMAkGA1UEBhMCRlIx
DzANBgNVBAgMBlJhZGl1czESMBAGA1UEBwwJU29tZXdoZXJlMRUwEwYDVQQKDAxF
eGFtcGxlIEluYy4xIDAeBgkqhkiG9w0BCQEWEWFkbWluQGV4YW1wbGUub3JnMSYw
JAYDVQQDDB1FeGFtcGxlIENlcnRpZmljYXRlIEF1dGhvcml0eTAgFw0yNDA1MTYw
MjE1MDBaGA8yMTI0MDUxNzAyMTUwMFowfDELMAkGA1UEBhMCRlIxDzANBgNVBAgM
BlJhZGl1czEVMBMGA1UECgwMRXhhbXBsZSBJbmMuMSMwIQYDVQQDDBpFeGFtcGxl
IFNlcnZlciBDZXJ0aWZpY2F0ZTEgMB4GCSqGSIb3DQEJARYRYWRtaW5AZXhhbXBs
ZS5vcmcwggEiMA0GCSqGSIb3DQEBAQUAA4IBDwAwggEKAoIBAQCvL26xkJYWHgKE
bip8LSsG7KDGztk2IvakNH3XDpIYQ6Btb151QfjviqrqSJ9gXRt1Wig9xo1Vjly9
Pjd32646siDJmNaH3CLpgVFrhkqaGnHvRdMJq0TXORNwoRxCod/LCAR4eVJpcMN8
Rl+vEGDgUq4lPyNmHKmKkT9d37nqvAy096baZ8MnPuj+ZgNwaU4pM6RCc0VmrXti
Y9AnXW/FMh+r2pn43Joa/gQDfXaTscON74HXG4gLXxhNq+YZgesdb5TRKUl8b+Tt
ycjttuD8B85R7sU5wSf1NmJ81z4rg6iP9SiW88O5GKgVKMjys9oRIi/ZD6IZmnJt
+aNsEkJ9AgMBAAGjgZAwgY0wEwYDVR0lBAwwCgYIKwYBBQUHAwEwNgYDVR0fBC8w
LTAroCmgJ4YlaHR0cDovL3d3dy5leGFtcGxlLmNvbS9leGFtcGxlX2NhLmNybDAd
BgNVHQ4EFgQU5rF9D0SS99ibvjGVlOsoHP4vBfgwHwYDVR0jBBgwFoAUXahTVAfB
0TeKWIxtFXK0aINRatQwDQYJKoZIhvcNAQELBQADggEBABGOANqt+XNivi4x3BJS
SY1DJtYZZzwdfgAfMLrn67jXmgNGVxbF+Mvt2fQSTIDLDmgnBpyMG4LUNk406h4y
eJ1U0Pmkrs6viLKqMep1uKN6ZDnfPYM/m94pim9tC5cTjo+91OFu+l3gjIep7FCD
PLR+lYuzx2q96wr2jWP9fzmi8achJCev+pfeu+B3OCXP5UbLtaKzJX/u53CNO0Pn
6zozpaTnl10nhypi9kK7sM2VYLid9z01Tt9UPw+KvGGEFpiHQhiedoRLHZIk5GSh
tiTnDcef0l3AiCxKPk/IDK7Fm3YnQoM9CG2RbrJSQz72wzLL3lOyJK9HhhtrTFul
GPE=
-----END CERTIFICATE-----
