Certificate:
    Data:
        Version: 3 (0x2)
        Serial Number: 2 (0x2)
        Signature Algorithm: sha256WithRSAEncryption
        Issuer: C=FR, ST=Radius, L=Somewhere, O=Example Inc./emailAddress=admin@example.org, CN=Example Certificate Authority
        Validity
            Not Before: May 16 02:15:00 2024 GMT
            Not After : May 17 02:15:00 2124 GMT
        Subject: C=FR, ST=Radius, O=Example Inc., CN=user@example.org/emailAddress=user@example.org
        Subject Public Key Info:
            Public Key Algorithm: rsaEncryption
                Public-Key: (2048 bit)
                Modulus:
                    00:b3:82:f0:29:70:fd:d0:32:2f:86:84:59:56:bd:
                    0c:8b:0c:a3:d4:fa:9d:2a:1c:5b:8a:56:39:e0:4a:
                    27:0d:ce:26:b0:88:f6:63:12:19:eb:9b:71:6f:de:
                    fa:d6:8a:61:5a:78:ef:b6:12:bb:2c:ef:6d:32:8d:
                    ae:30:9c:86:7e:b0:f0:14:7c:b6:be:ce:35:3d:8e:
                    ec:f4:18:23:60:90:4a:7b:ce:43:2d:81:1f:95:fb:
                    51:49:61:a5:44:05:af:56:e7:79:dc:e9:58:de:20:
                    6c:37:cd:87:55:1f:fd:74:c2:ca:0f:18:f3:c7:65:
                    c9:86:52:b7:b1:2b:14:55:1f:19:a3:06:d4:c6:8a:
                    a2:75:46:cb:62:3d:89:84:7f:2e:74:d1:ec:b1:0e:
                    4e:1f:aa:47:55:ba:54:ff:a5:6f:58:5e:1c:6f:25:
                    f0:cc:61:c8:3f:0a:2c:26:6a:48:e4:b7:b3:1b:11:
                    79:2d:56:3d:45:c3:52:9d:86:62:17:e1:df:af:20:
                    fb:f7:b5:32:fb:a4:0a:64:df:29:77:84:61:33:2a:
                    f4:e4:bf:9c:4a:ea:ba:c5:1f:c4:e8:30:e9:60:92:
                    b5:a2:ac:cd:e5:f0:4c:b5:37:74:7a:dc:9e:3b:53:
                    4a:71:8a:ad:a8:be:82:92:58:57:ea:20:40:65:a9:
                    32:9f
                Exponent: 65537 (0x10001)
        X509v3 extensions:
            X509v3 Extended Key Usage: 
                TLS Web Client Authentication
            X509v3 CRL Distribution Points: 
                Full Name:
                  URI:http://www.example.com/example_ca.crl
            X509v3 Subject Key Identifier: 
                47:C6:EB:45:21:0E:55:9A:52:37:16:33:EC:3B:22:64:85:90:7C:DD
            X509v3 Authority Key Identifier: 
                5D:A8:53:54:07:C1:D1:37:8A:58:8C:6D:15:72:B4:68:83:51:6A:D4
    Signature Algorithm: sha256WithRSAEncryption
    Signature Value:
        9d:8b:6c:88:8c:d7:fa:c4:08:36:5c:a7:03:aa:88:da:32:37:
        f1:45:ee:2b:b4:2a:bc:6a:98:b8:68:36:67:3a:d5:cd:ee:97:
        c1:6e:d9:d7:58:76:4b:e6:44:1e:41:c2:3f:8b:dd:b0:12:23:
        45:3d:54:ac:44:10:82:ca:c6:48:d5:8a:a4:74:e0:d0:57:ff:
        fb:32:53:c1:68:11:10:13:f5:d1:58:19:24:af:5b:b1:f5:02:
        3f:d3:23:90:ea:2d:62:65:f1:dd:5a:28:fa:b6:3b:64:0f:b7:
        67:a6:83:a0:fc:55:07:00:df:c2:a9:30:ed:5a:87:4c:04:31:
        d4:ce:d0:27:5c:00:10:9b:5f:24:08:41:c5:d7:ed:83:d0:0c:
        e6:2f:8d:25:56:7c:81:48:be:9e:ea:80:54:d5:74:db:d4:b3:
        bd:ac:68:78:2a:21:9f:2a:2f:2e:9d:2e:62:ad:e2:8e:43:55:
        37:5b:7c:1e:4e:c8:80:fb:c0:4a:97:10:b3:d7:ce:18:dc:ce:
        78:09:03:ea:f8:50:5c:2a:f9:a7:8f:76:2e:ef:58:72:65:5f:
        01:64:77:e7:4a:99:ea:e7:ab:92:df:12:93:5e:cd:0d:58:fa:
        02:cd:d4:f8:17:70:28:bf:e3:2f:9a:51:1b:88:15:0e:56:45:
        ad:ad:d4:28
-----BEGIN CERTIFICATE-----
MIIEEzCCAvugAwIBAgIBAjANBgkqhkiG9w0BAQsFADCBkzELMAkGA1UEBhMCRlIx
DzANBgNVBAgMBlJhZGl1czESMBAGA1UEBwwJU29tZXdoZXJlMRUwEwYDVQQKDAxF
eGFtcGxlIEluYy4xIDAeBgkqhkiG9w0BCQEWEWFkbWluQGV4YW1wbGUub3JnMSYw
JAYDVQQDDB1FeGFtcGxlIENlcnRpZmljYXRlIEF1dGhvcml0eTAgFw0yNDA1MTYw
MjE1MDBaGA8yMTI0MDUxNzAyMTUwMFowcTELMAkGA1UEBhMCRlIxDzANBgNVBAgM
BlJhZGl1czEVMBMGA1UECgwMRXhhbXBsZSBJbmMuMRkwFwYDVQQDDBB1c2VyQGV4
YW1wbGUub3JnMR8wHQYJKoZIhvcNAQkBFhB1c2VyQGV4YW1wbGUub3JnMIIBIjAN
BgkqhkiG9w0BAQEFAAOCAQ8AMIIBCgKCAQEAs4LwKXD90DIvhoRZVr0Miwyj1Pqd
KhxbilY54EonDc4msIj2YxIZ65txb9761ophWnjvthK7LO9tMo2uMJyGfrDwFHy2
vs41PY7s9BgjYJBKe85DLYEflftRSWGlRAWvVud53OlY3iBsN82HVR/9dMLKDxjz
x2XJhlK3sSsUVR8ZowbUxoqidUbLYj2JhH8udNHssQ5OH6pHVbpU/6VvWF4cbyXw
zGHIPwosJmpI5LezGxF5LVY9RcNSnYZiF+HfryD797Uy+6QKZN8pd4RhMyr05L+c
Suq6xR/E6DDpYJK1oqzN5fBMtTd0etyeO1NKcYqtqL6CklhX6iBAZakynwIDAQAB
o4GQMIGNMBMGA1UdJQQMMAoGCCsGAQUFBwMCMDYGA1UdHwQvMC0wK6ApoCeGJWh0
dHA6Ly93d3cuZXhhbXBsZS5jb20vZXhhbXBsZV9jYS5jcmwwHQYDVR0OBBYEFEfG
60UhDlWaUjcWM+w7ImSFkHzdMB8GA1UdIwQYMBaAFF2oU1QHwdE3iliMbRVytGiD
UWrUMA0GCSqGSIb3DQEBCwUAA4IBAQCdi2yIjNf6xAg2XKcDqojaMjfxRe4rtCq8
api4aDZnOtXN7pfBbtnXWHZL5kQeQcI/i92wEiNFPVSsRBCCysZI1YqkdODQV//7
MlPBaBEQE/XRWBkkr1ux9QI/0yOQ6i1iZfHdWij6tjtkD7dnpoOg/FUHAN/CqTDt
WodMBDHUztAnXAAQm18kCEHF1+2D0AzmL40lVnyBSL6e6oBU1XTb1LO9rGh4KiGf
Ki8unS5ireKOQ1U3W3weTsiA+8BKlxCz184Y3M54CQPq+FBcKvmnj3Yu71hyZV8B
ZHfnSpnq56uS3xKTXs0NWPoCzdT4F3Aov+MvmlEbiBUOVkWtrdQo
-----END CERTIFICATE-----
